target datalayout = "e-m:e-p270:32:32-p271:32:32-p272:64:64-i64:64-i128:128-f80:128-n8:16:32:64-S128"
target triple = "x86_64-pc-linux-gnu"

%struct.pxr_nc_1_0_ColorSpace = type { %struct.pxr_nc_1_0_ColorSpaceDescriptor, float, float, %struct.pxr_nc_1_0_M33f }
%struct.pxr_nc_1_0_ColorSpaceDescriptor = type { ptr, %struct.pxr_nc_1_0_Chromaticity, %struct.pxr_nc_1_0_Chromaticity, %struct.pxr_nc_1_0_Chromaticity, %struct.pxr_nc_1_0_Chromaticity, float, float }
%struct.pxr_nc_1_0_Chromaticity = type { float, float }
%struct.pxr_nc_1_0_M33f = type { [9 x float] }

; Function Attrs: nounwind uwtable
define zeroext i1 @pxr_nc_1_0_ColorSpaceEqual(ptr noundef %0, ptr noundef %1) #0 {
  %3 = alloca i1, align 1
  %4 = alloca ptr, align 8
  %5 = alloca ptr, align 8
  %6 = alloca i32, align 4
  store ptr %0, ptr %4, align 8
  store ptr %1, ptr %5, align 8
  %7 = load ptr, ptr %4, align 8
  %8 = icmp ne ptr %7, null
  br i1 %8, label %9, label %12

9:                                                ; preds = %2
  %10 = load ptr, ptr %5, align 8
  %11 = icmp ne ptr %10, null
  br i1 %11, label %13, label %12

12:                                               ; preds = %9, %2
  store i1 false, ptr %3, align 1
  br label %92

13:                                               ; preds = %9
  %14 = load ptr, ptr %4, align 8
  %15 = getelementptr inbounds nuw %struct.pxr_nc_1_0_ColorSpace, ptr %14, i32 0, i32 0
  %16 = getelementptr inbounds nuw %struct.pxr_nc_1_0_ColorSpaceDescriptor, ptr %15, i32 0, i32 0
  %17 = load ptr, ptr %16, align 8
  %18 = icmp eq ptr %17, null
  br i1 %18, label %25, label %19

19:                                               ; preds = %13
  %20 = load ptr, ptr %5, align 8
  %21 = getelementptr inbounds nuw %struct.pxr_nc_1_0_ColorSpace, ptr %20, i32 0, i32 0
  %22 = getelementptr inbounds nuw %struct.pxr_nc_1_0_ColorSpaceDescriptor, ptr %21, i32 0, i32 0
  %23 = load ptr, ptr %22, align 8
  %24 = icmp eq ptr %23, null
  br i1 %24, label %25, label %26

25:                                               ; preds = %19, %13
  store i1 false, ptr %3, align 1
  br label %92

26:                                               ; preds = %19
  %27 = load ptr, ptr %4, align 8
  %28 = getelementptr inbounds nuw %struct.pxr_nc_1_0_ColorSpace, ptr %27, i32 0, i32 0
  %29 = getelementptr inbounds nuw %struct.pxr_nc_1_0_ColorSpaceDescriptor, ptr %28, i32 0, i32 0
  %30 = load ptr, ptr %29, align 8
  %31 = load ptr, ptr %4, align 8
  %32 = getelementptr inbounds nuw %struct.pxr_nc_1_0_ColorSpace, ptr %31, i32 0, i32 0
  %33 = getelementptr inbounds nuw %struct.pxr_nc_1_0_ColorSpaceDescriptor, ptr %32, i32 0, i32 0
  %34 = load ptr, ptr %33, align 8
  %35 = call i32 @strcmp(ptr noundef %30, ptr noundef %34) #7
  %36 = icmp ne i32 %35, 0
  br i1 %36, label %37, label %38

37:                                               ; preds = %26
  store i1 false, ptr %3, align 1
  br label %92

38:                                               ; preds = %26
  store i32 0, ptr %6, align 4
  br label %39

39:                                               ; preds = %62, %38
  %40 = load i32, ptr %6, align 4
  %41 = icmp slt i32 %40, 9
  br i1 %41, label %42, label %65

42:                                               ; preds = %39
  %43 = load ptr, ptr %4, align 8
  %44 = getelementptr inbounds nuw %struct.pxr_nc_1_0_ColorSpace, ptr %43, i32 0, i32 3
  %45 = getelementptr inbounds nuw %struct.pxr_nc_1_0_M33f, ptr %44, i32 0, i32 0
  %46 = load i32, ptr %6, align 4
  %47 = sext i32 %46 to i64
  %48 = getelementptr inbounds [9 x float], ptr %45, i64 0, i64 %47
  %49 = load float, ptr %48, align 4
  %50 = load ptr, ptr %5, align 8
  %51 = getelementptr inbounds nuw %struct.pxr_nc_1_0_ColorSpace, ptr %50, i32 0, i32 3
  %52 = getelementptr inbounds nuw %struct.pxr_nc_1_0_M33f, ptr %51, i32 0, i32 0
  %53 = load i32, ptr %6, align 4
  %54 = sext i32 %53 to i64
  %55 = getelementptr inbounds [9 x float], ptr %52, i64 0, i64 %54
  %56 = load float, ptr %55, align 4
  %57 = fsub float %49, %56
  %58 = call float @llvm.fabs.f32(float %57)
  %59 = fcmp ogt float %58, 0x3EE4F8B580000000
  br i1 %59, label %60, label %61

60:                                               ; preds = %42
  store i1 false, ptr %3, align 1
  br label %92

61:                                               ; preds = %42
  br label %62

62:                                               ; preds = %61
  %63 = load i32, ptr %6, align 4
  %64 = add nsw i32 %63, 1
  store i32 %64, ptr %6, align 4
  br label %39, !llvm.loop !4

65:                                               ; preds = %39
  %66 = load ptr, ptr %4, align 8
  %67 = getelementptr inbounds nuw %struct.pxr_nc_1_0_ColorSpace, ptr %66, i32 0, i32 0
  %68 = getelementptr inbounds nuw %struct.pxr_nc_1_0_ColorSpaceDescriptor, ptr %67, i32 0, i32 5
  %69 = load float, ptr %68, align 8
  %70 = load ptr, ptr %5, align 8
  %71 = getelementptr inbounds nuw %struct.pxr_nc_1_0_ColorSpace, ptr %70, i32 0, i32 0
  %72 = getelementptr inbounds nuw %struct.pxr_nc_1_0_ColorSpaceDescriptor, ptr %71, i32 0, i32 5
  %73 = load float, ptr %72, align 8
  %74 = fsub float %69, %73
  %75 = call float @llvm.fabs.f32(float %74)
  %76 = fcmp ogt float %75, 0x3F50624DE0000000
  br i1 %76, label %77, label %78

77:                                               ; preds = %65
  store i1 false, ptr %3, align 1
  br label %92

78:                                               ; preds = %65
  %79 = load ptr, ptr %4, align 8
  %80 = getelementptr inbounds nuw %struct.pxr_nc_1_0_ColorSpace, ptr %79, i32 0, i32 0
  %81 = getelementptr inbounds nuw %struct.pxr_nc_1_0_ColorSpaceDescriptor, ptr %80, i32 0, i32 6
  %82 = load float, ptr %81, align 4
  %83 = load ptr, ptr %5, align 8
  %84 = getelementptr inbounds nuw %struct.pxr_nc_1_0_ColorSpace, ptr %83, i32 0, i32 0
  %85 = getelementptr inbounds nuw %struct.pxr_nc_1_0_ColorSpaceDescriptor, ptr %84, i32 0, i32 6
  %86 = load float, ptr %85, align 4
  %87 = fsub float %82, %86
  %88 = call float @llvm.fabs.f32(float %87)
  %89 = fcmp ogt float %88, 0x3F50624DE0000000
  br i1 %89, label %90, label %91

90:                                               ; preds = %78
  store i1 false, ptr %3, align 1
  br label %92

91:                                               ; preds = %78
  store i1 true, ptr %3, align 1
  br label %92

92:                                               ; preds = %91, %90, %77, %60, %37, %25, %12
  %93 = load i1, ptr %3, align 1
  ret i1 %93
}