; Function Attrs: nofree norecurse nosync nounwind memory(argmem: read) uwtable
define zeroext i1 @pxr_nc_1_0_ColorSpaceEqual(ptr noundef readonly %0, ptr noundef readonly %1) local_unnamed_addr #3 {
  %3 = icmp ne ptr %0, null
  %4 = icmp ne ptr %1, null
  %or.cond = and i1 %3, %4
  br i1 %or.cond, label %5, label %.loopexit

5:                                                ; preds = %2
  %6 = load ptr, ptr %0, align 8
  %7 = icmp eq ptr %6, null
  br i1 %7, label %.loopexit, label %8

8:                                                ; preds = %5
  %9 = load ptr, ptr %1, align 8
  %10 = icmp eq ptr %9, null
  br i1 %10, label %.loopexit, label %.preheader

.preheader:                                       ; preds = %8
  %11 = getelementptr inbounds nuw i8, ptr %0, i64 56
  %12 = getelementptr inbounds nuw i8, ptr %1, i64 56
  br label %14

13:                                               ; preds = %14
  %indvars.iv.next = add nuw nsw i64 %indvars.iv, 1
  %exitcond.not = icmp eq i64 %indvars.iv.next, 9
  br i1 %exitcond.not, label %22, label %14, !llvm.loop !4

14:                                               ; preds = %.preheader, %13
  %indvars.iv = phi i64 [ 0, %.preheader ], [ %indvars.iv.next, %13 ]
  %15 = getelementptr inbounds [9 x float], ptr %11, i64 0, i64 %indvars.iv
  %16 = load float, ptr %15, align 4
  %17 = getelementptr inbounds [9 x float], ptr %12, i64 0, i64 %indvars.iv
  %18 = load float, ptr %17, align 4
  %19 = fsub float %16, %18
  %20 = tail call float @llvm.fabs.f32(float %19)
  %21 = fcmp ogt float %20, 0x3EE4F8B580000000
  br i1 %21, label %.loopexit, label %13

22:                                               ; preds = %13
  %23 = getelementptr inbounds nuw i8, ptr %0, i64 40
  %24 = load float, ptr %23, align 8
  %25 = getelementptr inbounds nuw i8, ptr %1, i64 40
  %26 = load float, ptr %25, align 8
  %27 = fsub float %24, %26
  %28 = tail call float @llvm.fabs.f32(float %27)
  %29 = fcmp ogt float %28, 0x3F50624DE0000000
  br i1 %29, label %.loopexit, label %30

30:                                               ; preds = %22
  %31 = getelementptr inbounds nuw i8, ptr %0, i64 44
  %32 = load float, ptr %31, align 4
  %33 = getelementptr inbounds nuw i8, ptr %1, i64 44
  %34 = load float, ptr %33, align 4
  %35 = fsub float %32, %34
  %36 = tail call float @llvm.fabs.f32(float %35)
  %37 = fcmp ule float %36, 0x3F50624DE0000000
  br label %.loopexit

.loopexit:                                        ; preds = %14, %30, %22, %5, %8, %2
  %.017 = phi i1 [ false, %2 ], [ false, %8 ], [ false, %5 ], [ false, %22 ], [ %37, %30 ], [ false, %14 ]
  ret i1 %.017
}